target datalayout = "e-m:e-p270:32:32-p271:32:32-p272:64:64-i64:64-i128:128-f80:128-n8:16:32:64-S128"
target triple = "x86_64-pc-linux-gnu"

%struct.__va_list_tag = type { i32, i32, ptr, ptr }

; Function Attrs: nounwind uwtable
define dso_local i32 @ap_php_vsnprintf(ptr noundef %0, i64 noundef %1, ptr noundef %2, ptr noundef %3) #0 {
  %5 = alloca ptr, align 8
  %6 = alloca i64, align 8
  %7 = alloca ptr, align 8
  %8 = alloca ptr, align 8
  %9 = alloca i64, align 8
  store ptr %0, ptr %5, align 8, !tbaa !13
  store i64 %1, ptr %6, align 8, !tbaa !4
  store ptr %2, ptr %7, align 8, !tbaa !13
  store ptr %3, ptr %8, align 8, !tbaa !30
  call void @llvm.lifetime.start.p0(i64 8, ptr %9) #15
  %10 = load ptr, ptr %5, align 8, !tbaa !13
  %11 = load i64, ptr %6, align 8, !tbaa !4
  %12 = load ptr, ptr %7, align 8, !tbaa !13
  %13 = load ptr, ptr %8, align 8, !tbaa !30
  %14 = call i64 @strx_printv(ptr noundef %10, i64 noundef %11, ptr noundef %12, ptr noundef %13)
  store i64 %14, ptr %9, align 8, !tbaa !4
  %15 = load i64, ptr %9, align 8, !tbaa !4
  %16 = trunc i64 %15 to i32
  call void @llvm.lifetime.end.p0(i64 8, ptr %9) #15
  ret i32 %16
}

; Function Attrs: nounwind uwtable
define dso_local i32 @ap_php_vasprintf(ptr noundef %0, ptr noundef %1, ptr noundef %2) #0 {
  %4 = alloca ptr, align 8
  %5 = alloca ptr, align 8
  %6 = alloca ptr, align 8
  %7 = alloca [1 x %struct.__va_list_tag], align 16
  %8 = alloca i32, align 4
  store ptr %0, ptr %4, align 8, !tbaa !35
  store ptr %1, ptr %5, align 8, !tbaa !13
  store ptr %2, ptr %6, align 8, !tbaa !30
  call void @llvm.lifetime.start.p0(i64 24, ptr %7) #15
  call void @llvm.lifetime.start.p0(i64 4, ptr %8) #15
  %9 = getelementptr inbounds [1 x %struct.__va_list_tag], ptr %7, i64 0, i64 0
  %10 = load ptr, ptr %6, align 8, !tbaa !30
  call void @llvm.va_copy.p0(ptr %9, ptr %10)
  %11 = load ptr, ptr %5, align 8, !tbaa !13
  %12 = getelementptr inbounds [1 x %struct.__va_list_tag], ptr %7, i64 0, i64 0
  %13 = call i32 @ap_php_vsnprintf(ptr noundef null, i64 noundef 0, ptr noundef %11, ptr noundef %12)
  store i32 %13, ptr %8, align 4, !tbaa !22
  %14 = getelementptr inbounds [1 x %struct.__va_list_tag], ptr %7, i64 0, i64 0
  call void @llvm.va_end.p0(ptr %14)
  %15 = load ptr, ptr %4, align 8, !tbaa !35
  store ptr null, ptr %15, align 8, !tbaa !13
  %16 = load i32, ptr %8, align 4, !tbaa !22
  %17 = icmp sge i32 %16, 0
  br i1 %17, label %18, label %40

18:                                               ; preds = %3
  %19 = load i32, ptr %8, align 4, !tbaa !22
  %20 = add nsw i32 %19, 1
  store i32 %20, ptr %8, align 4, !tbaa !22
  %21 = sext i32 %20 to i64
  %22 = call noalias ptr @malloc(i64 noundef %21) #18
  %23 = load ptr, ptr %4, align 8, !tbaa !35
  store ptr %22, ptr %23, align 8, !tbaa !13
  %24 = icmp ne ptr %22, null
  br i1 %24, label %25, label %39

25:                                               ; preds = %18
  %26 = load ptr, ptr %4, align 8, !tbaa !35
  %27 = load ptr, ptr %26, align 8, !tbaa !13
  %28 = load i32, ptr %8, align 4, !tbaa !22
  %29 = sext i32 %28 to i64
  %30 = load ptr, ptr %5, align 8, !tbaa !13
  %31 = load ptr, ptr %6, align 8, !tbaa !30
  %32 = call i32 @ap_php_vsnprintf(ptr noundef %27, i64 noundef %29, ptr noundef %30, ptr noundef %31)
  store i32 %32, ptr %8, align 4, !tbaa !22
  %33 = icmp slt i32 %32, 0
  br i1 %33, label %34, label %38

34:                                               ; preds = %25
  %35 = load ptr, ptr %4, align 8, !tbaa !35
  %36 = load ptr, ptr %35, align 8, !tbaa !13
  call void @free(ptr noundef %36) #15
  %37 = load ptr, ptr %4, align 8, !tbaa !35
  store ptr null, ptr %37, align 8, !tbaa !13
  br label %38

38:                                               ; preds = %34, %25
  br label %39

39:                                               ; preds = %38, %18
  br label %40

40:                                               ; preds = %39, %3
  %41 = load i32, ptr %8, align 4, !tbaa !22
  call void @llvm.lifetime.end.p0(i64 4, ptr %8) #15
  call void @llvm.lifetime.end.p0(i64 24, ptr %7) #15
  ret i32 %41
}