; Function Attrs: nounwind uwtable
define dso_local i32 @ap_php_vasprintf(ptr noundef captures(none) initializes((0, 8)) %0, ptr noundef %1, ptr noundef %2) local_unnamed_addr #2 {
  %4 = alloca [1 x %struct.__va_list_tag], align 16
  call void @llvm.lifetime.start.p0(i64 24, ptr nonnull %4) #17
  call void @llvm.va_copy.p0(ptr nonnull %4, ptr %2)
  %5 = call fastcc i64 @strx_printv(ptr noundef null, i64 noundef 0, ptr noundef %1, ptr noundef nonnull %4)
  %6 = trunc i64 %5 to i32
  call void @llvm.va_end.p0(ptr nonnull %4)
  store ptr null, ptr %0, align 8, !tbaa !28
  %7 = icmp sgt i32 %6, -1
  br i1 %7, label %8, label %18

8:                                                ; preds = %3
  %9 = add nuw nsw i32 %6, 1
  %10 = zext nneg i32 %9 to i64
  %11 = call noalias ptr @malloc(i64 noundef %10) #22
  store ptr %11, ptr %0, align 8, !tbaa !28
  %.not = icmp eq ptr %11, null
  br i1 %.not, label %18, label %12

12:                                               ; preds = %8
  %13 = call fastcc i64 @strx_printv(ptr noundef nonnull %11, i64 noundef %10, ptr noundef %1, ptr noundef %2)
  %14 = trunc i64 %13 to i32
  %15 = icmp slt i32 %14, 0
  br i1 %15, label %16, label %18

16:                                               ; preds = %12
  %17 = load ptr, ptr %0, align 8, !tbaa !28
  call void @free(ptr noundef %17) #17
  store ptr null, ptr %0, align 8, !tbaa !28
  br label %18

18:                                               ; preds = %8, %16, %12, %3
  %.0 = phi i32 [ %14, %16 ], [ %14, %12 ], [ %9, %8 ], [ %6, %3 ]
  call void @llvm.lifetime.end.p0(i64 24, ptr nonnull %4) #17
  ret i32 %.0
}